target datalayout = "e-m:e-p270:32:32-p271:32:32-p272:64:64-i64:64-i128:128-f80:128-n8:16:32:64-S128"
target triple = "x86_64-pc-linux-gnu"

%"class.rocksdb::SeqnoToTimeMapping" = type <{ i64, i64, %"class.std::deque", i8, [7 x i8] }>
%"class.std::deque" = type { %"class.std::_Deque_base" }
%"class.std::_Deque_base" = type { %"struct.std::_Deque_base<rocksdb::SeqnoToTimeMapping::SeqnoTimePair, std::allocator<rocksdb::SeqnoToTimeMapping::SeqnoTimePair>>::_Deque_impl" }
%"struct.std::_Deque_base<rocksdb::SeqnoToTimeMapping::SeqnoTimePair, std::allocator<rocksdb::SeqnoToTimeMapping::SeqnoTimePair>>::_Deque_impl" = type { %"struct.std::_Deque_base<rocksdb::SeqnoToTimeMapping::SeqnoTimePair, std::allocator<rocksdb::SeqnoToTimeMapping::SeqnoTimePair>>::_Deque_impl_data" }
%"struct.std::_Deque_base<rocksdb::SeqnoToTimeMapping::SeqnoTimePair, std::allocator<rocksdb::SeqnoToTimeMapping::SeqnoTimePair>>::_Deque_impl_data" = type { ptr, i64, %"struct.std::_Deque_iterator.3", %"struct.std::_Deque_iterator.3" }
%"struct.std::_Deque_iterator.3" = type { ptr, ptr, ptr, ptr }

; Function Attrs: mustprogress uwtable
define noundef nonnull align 8 dereferenceable(97) ptr @_ZN7rocksdb18SeqnoToTimeMapping7EnforceEm(ptr noundef nonnull align 8 dereferenceable(97) %0, i64 noundef %1) #5 align 2 {
  %3 = alloca ptr, align 8
  %4 = alloca i64, align 8
  store ptr %0, ptr %3, align 8, !tbaa !23
  store i64 %1, ptr %4, align 8, !tbaa !4
  %5 = load ptr, ptr %3, align 8
  %6 = getelementptr inbounds nuw %"class.rocksdb::SeqnoToTimeMapping", ptr %5, i32 0, i32 3
  %7 = load i8, ptr %6, align 8, !tbaa !83, !range !60, !noundef !61
  %8 = trunc i8 %7 to i1
  br i1 %8, label %11, label %9

9:                                                ; preds = %2
  call void @_ZN7rocksdb18SeqnoToTimeMapping12SortAndMergeEv(ptr noundef nonnull align 8 dereferenceable(97) %5)
  %10 = load i64, ptr %4, align 8, !tbaa !4
  call void @_ZN7rocksdb18SeqnoToTimeMapping18EnforceMaxTimeSpanEm(ptr noundef nonnull align 8 dereferenceable(97) %5, i64 noundef %10)
  br label %17

11:                                               ; preds = %2
  %12 = load i64, ptr %4, align 8, !tbaa !4
  %13 = icmp ugt i64 %12, 0
  br i1 %13, label %14, label %16

14:                                               ; preds = %11
  %15 = load i64, ptr %4, align 8, !tbaa !4
  call void @_ZN7rocksdb18SeqnoToTimeMapping18EnforceMaxTimeSpanEm(ptr noundef nonnull align 8 dereferenceable(97) %5, i64 noundef %15)
  br label %16

16:                                               ; preds = %14, %11
  br label %17

17:                                               ; preds = %16, %9
  call void @_ZN7rocksdb18SeqnoToTimeMapping15EnforceCapacityEb(ptr noundef nonnull align 8 dereferenceable(97) %5, i1 noundef zeroext true)
  ret ptr %5
}