; Function Attrs: mustprogress uwtable
define noundef nonnull align 8 dereferenceable(97) ptr @_ZN7rocksdb18SeqnoToTimeMapping7EnforceEm(ptr noundef nonnull returned align 8 dereferenceable(97) %0, i64 noundef %1) local_unnamed_addr #6 align 2 {
  %3 = getelementptr inbounds nuw i8, ptr %0, i64 96
  %4 = load i8, ptr %3, align 8, !tbaa !233, !range !234, !noundef !235
  %5 = trunc nuw i8 %4 to i1
  br i1 %5, label %7, label %6

6:                                                ; preds = %2
  tail call void @_ZN7rocksdb18SeqnoToTimeMapping12SortAndMergeEv(ptr noundef nonnull align 8 dereferenceable(97) %0)
  br label %.sink.split

7:                                                ; preds = %2
  %.not = icmp eq i64 %1, 0
  br i1 %.not, label %8, label %.sink.split

.sink.split:                                      ; preds = %7, %6
  tail call void @_ZN7rocksdb18SeqnoToTimeMapping18EnforceMaxTimeSpanEm(ptr noundef nonnull align 8 dereferenceable(97) %0, i64 noundef %1)
  br label %8

8:                                                ; preds = %.sink.split, %7
  tail call void @_ZN7rocksdb18SeqnoToTimeMapping15EnforceCapacityEb(ptr noundef nonnull align 8 dereferenceable(97) %0, i1 noundef zeroext true)
  ret ptr %0
}